target datalayout = "e-m:e-p270:32:32-p271:32:32-p272:64:64-i64:64-i128:128-f80:128-n8:16:32:64-S128"
target triple = "x86_64-pc-linux-gnu"

%"class.cv::epnp" = type { double, double, double, double, %"class.std::vector", %"class.std::vector", %"class.std::vector", %"class.std::vector", i32, [4 x [3 x double]], [4 x [3 x double]], i32, ptr, ptr }
%"class.std::vector" = type { %"struct.std::_Vector_base" }
%"struct.std::_Vector_base" = type { %"struct.std::_Vector_base<double, std::allocator<double>>::_Vector_impl" }
%"struct.std::_Vector_base<double, std::allocator<double>>::_Vector_impl" = type { %"struct.std::_Vector_base<double, std::allocator<double>>::_Vector_impl_data" }
%"struct.std::_Vector_base<double, std::allocator<double>>::_Vector_impl_data" = type { ptr, ptr, ptr }

; Function Attrs: mustprogress nounwind uwtable
define linkonce_odr hidden noundef nonnull align 8 dereferenceable(8) ptr @_ZNSt6vectorIdSaIdEEixEm(ptr noundef nonnull align 8 dereferenceable(24) %0, i64 noundef %1) #5 comdat align 2 {
  %3 = alloca ptr, align 8
  %4 = alloca i64, align 8
  store ptr %0, ptr %3, align 8, !tbaa !23
  store i64 %1, ptr %4, align 8, !tbaa !42
  %5 = load ptr, ptr %3, align 8
  %6 = getelementptr inbounds nuw %"struct.std::_Vector_base", ptr %5, i32 0, i32 0
  %7 = getelementptr inbounds nuw %"struct.std::_Vector_base<double, std::allocator<double>>::_Vector_impl_data", ptr %6, i32 0, i32 0
  %8 = load ptr, ptr %7, align 8, !tbaa !44
  %9 = load i64, ptr %4, align 8, !tbaa !42
  %10 = getelementptr inbounds nuw double, ptr %8, i64 %9
  ret ptr %10
}

; Function Attrs: mustprogress nounwind uwtable
define hidden void @_ZN2cv4epnp11compute_pcsEv(ptr noundef nonnull align 8 dereferenceable(352) %0) #5 align 2 {
  %2 = alloca ptr, align 8
  %3 = alloca i32, align 4
  %4 = alloca i32, align 4
  %5 = alloca ptr, align 8
  %6 = alloca ptr, align 8
  %7 = alloca i32, align 4
  store ptr %0, ptr %2, align 8, !tbaa !3
  %8 = load ptr, ptr %2, align 8
  call void @llvm.lifetime.start.p0(i64 4, ptr %3) #3
  store i32 0, ptr %3, align 4, !tbaa !10
  br label %9

9:                                                ; preds = %81, %1
  %10 = load i32, ptr %3, align 4, !tbaa !10
  %11 = getelementptr inbounds nuw %"class.cv::epnp", ptr %8, i32 0, i32 8
  %12 = load i32, ptr %11, align 8, !tbaa !12
  %13 = icmp slt i32 %10, %12
  br i1 %13, label %15, label %14

14:                                               ; preds = %9
  store i32 2, ptr %4, align 4
  call void @llvm.lifetime.end.p0(i64 4, ptr %3) #3
  br label %84

15:                                               ; preds = %9
  call void @llvm.lifetime.start.p0(i64 8, ptr %5) #3
  %16 = getelementptr inbounds nuw %"class.cv::epnp", ptr %8, i32 0, i32 6
  %17 = call noundef nonnull align 8 dereferenceable(8) ptr @_ZNSt6vectorIdSaIdEEixEm(ptr noundef nonnull align 8 dereferenceable(24) %16, i64 noundef 0) #3
  %18 = load i32, ptr %3, align 4, !tbaa !10
  %19 = mul nsw i32 4, %18
  %20 = sext i32 %19 to i64
  %21 = getelementptr inbounds double, ptr %17, i64 %20
  store ptr %21, ptr %5, align 8, !tbaa !83
  call void @llvm.lifetime.start.p0(i64 8, ptr %6) #3
  %22 = getelementptr inbounds nuw %"class.cv::epnp", ptr %8, i32 0, i32 7
  %23 = call noundef nonnull align 8 dereferenceable(8) ptr @_ZNSt6vectorIdSaIdEEixEm(ptr noundef nonnull align 8 dereferenceable(24) %22, i64 noundef 0) #3
  %24 = load i32, ptr %3, align 4, !tbaa !10
  %25 = mul nsw i32 3, %24
  %26 = sext i32 %25 to i64
  %27 = getelementptr inbounds double, ptr %23, i64 %26
  store ptr %27, ptr %6, align 8, !tbaa !83
  call void @llvm.lifetime.start.p0(i64 4, ptr %7) #3
  store i32 0, ptr %7, align 4, !tbaa !10
  br label %28

28:                                               ; preds = %77, %15
  %29 = load i32, ptr %7, align 4, !tbaa !10
  %30 = icmp slt i32 %29, 3
  br i1 %30, label %32, label %31

31:                                               ; preds = %28
  store i32 5, ptr %4, align 4
  call void @llvm.lifetime.end.p0(i64 4, ptr %7) #3
  br label %80

32:                                               ; preds = %28
  %33 = load ptr, ptr %5, align 8, !tbaa !83
  %34 = getelementptr inbounds double, ptr %33, i64 0
  %35 = load double, ptr %34, align 8, !tbaa !40
  %36 = getelementptr inbounds nuw %"class.cv::epnp", ptr %8, i32 0, i32 10
  %37 = getelementptr inbounds [4 x [3 x double]], ptr %36, i64 0, i64 0
  %38 = load i32, ptr %7, align 4, !tbaa !10
  %39 = sext i32 %38 to i64
  %40 = getelementptr inbounds [3 x double], ptr %37, i64 0, i64 %39
  %41 = load double, ptr %40, align 8, !tbaa !40
  %42 = load ptr, ptr %5, align 8, !tbaa !83
  %43 = getelementptr inbounds double, ptr %42, i64 1
  %44 = load double, ptr %43, align 8, !tbaa !40
  %45 = getelementptr inbounds nuw %"class.cv::epnp", ptr %8, i32 0, i32 10
  %46 = getelementptr inbounds [4 x [3 x double]], ptr %45, i64 0, i64 1
  %47 = load i32, ptr %7, align 4, !tbaa !10
  %48 = sext i32 %47 to i64
  %49 = getelementptr inbounds [3 x double], ptr %46, i64 0, i64 %48
  %50 = load double, ptr %49, align 8, !tbaa !40
  %51 = fmul double %44, %50
  %52 = call double @llvm.fmuladd.f64(double %35, double %41, double %51)
  %53 = load ptr, ptr %5, align 8, !tbaa !83
  %54 = getelementptr inbounds double, ptr %53, i64 2
  %55 = load double, ptr %54, align 8, !tbaa !40
  %56 = getelementptr inbounds nuw %"class.cv::epnp", ptr %8, i32 0, i32 10
  %57 = getelementptr inbounds [4 x [3 x double]], ptr %56, i64 0, i64 2
  %58 = load i32, ptr %7, align 4, !tbaa !10
  %59 = sext i32 %58 to i64
  %60 = getelementptr inbounds [3 x double], ptr %57, i64 0, i64 %59
  %61 = load double, ptr %60, align 8, !tbaa !40
  %62 = call double @llvm.fmuladd.f64(double %55, double %61, double %52)
  %63 = load ptr, ptr %5, align 8, !tbaa !83
  %64 = getelementptr inbounds double, ptr %63, i64 3
  %65 = load double, ptr %64, align 8, !tbaa !40
  %66 = getelementptr inbounds nuw %"class.cv::epnp", ptr %8, i32 0, i32 10
  %67 = getelementptr inbounds [4 x [3 x double]], ptr %66, i64 0, i64 3
  %68 = load i32, ptr %7, align 4, !tbaa !10
  %69 = sext i32 %68 to i64
  %70 = getelementptr inbounds [3 x double], ptr %67, i64 0, i64 %69
  %71 = load double, ptr %70, align 8, !tbaa !40
  %72 = call double @llvm.fmuladd.f64(double %65, double %71, double %62)
  %73 = load ptr, ptr %6, align 8, !tbaa !83
  %74 = load i32, ptr %7, align 4, !tbaa !10
  %75 = sext i32 %74 to i64
  %76 = getelementptr inbounds double, ptr %73, i64 %75
  store double %72, ptr %76, align 8, !tbaa !40
  br label %77

77:                                               ; preds = %32
  %78 = load i32, ptr %7, align 4, !tbaa !10
  %79 = add nsw i32 %78, 1
  store i32 %79, ptr %7, align 4, !tbaa !10
  br label %28, !llvm.loop !91

80:                                               ; preds = %31
  call void @llvm.lifetime.end.p0(i64 8, ptr %6) #3
  call void @llvm.lifetime.end.p0(i64 8, ptr %5) #3
  br label %81

81:                                               ; preds = %80
  %82 = load i32, ptr %3, align 4, !tbaa !10
  %83 = add nsw i32 %82, 1
  store i32 %83, ptr %3, align 4, !tbaa !10
  br label %9, !llvm.loop !92

84:                                               ; preds = %14
  ret void
}