; Function Attrs: mustprogress nofree norecurse nosync nounwind memory(readwrite, inaccessiblemem: none) uwtable
define hidden void @_ZN2cv4epnp11compute_pcsEv(ptr noundef nonnull readonly align 8 captures(none) dereferenceable(352) %0) local_unnamed_addr #12 align 2 {
  %2 = getelementptr inbounds nuw i8, ptr %0, i64 128
  %3 = load i32, ptr %2, align 8, !tbaa !34
  %4 = icmp sgt i32 %3, 0
  br i1 %4, label %.lr.ph, label %._crit_edge

.lr.ph:                                           ; preds = %1
  %5 = getelementptr inbounds nuw i8, ptr %0, i64 80
  %6 = load ptr, ptr %5, align 8, !tbaa !36
  %7 = getelementptr inbounds nuw i8, ptr %0, i64 104
  %8 = load ptr, ptr %7, align 8, !tbaa !36
  %9 = getelementptr inbounds nuw i8, ptr %0, i64 232
  %10 = getelementptr inbounds nuw i8, ptr %0, i64 256
  %11 = getelementptr inbounds nuw i8, ptr %0, i64 280
  %12 = getelementptr inbounds nuw i8, ptr %0, i64 304
  %wide.trip.count = zext nneg i32 %3 to i64
  br label %13

._crit_edge:                                      ; preds = %19, %1
  ret void

13:                                               ; preds = %.lr.ph, %19
  %indvars.iv20 = phi i64 [ 0, %.lr.ph ], [ %indvars.iv.next21, %19 ]
  %.idx = shl nsw i64 %indvars.iv20, 5
  %14 = getelementptr inbounds nuw i8, ptr %6, i64 %.idx
  %.idx24 = mul nuw nsw i64 %indvars.iv20, 24
  %15 = getelementptr inbounds nuw i8, ptr %8, i64 %.idx24
  %16 = getelementptr inbounds nuw i8, ptr %14, i64 8
  %17 = getelementptr inbounds nuw i8, ptr %14, i64 16
  %18 = getelementptr inbounds nuw i8, ptr %14, i64 24
  br label %20

19:                                               ; preds = %20
  %indvars.iv.next21 = add nuw nsw i64 %indvars.iv20, 1
  %exitcond23.not = icmp eq i64 %indvars.iv.next21, %wide.trip.count
  br i1 %exitcond23.not, label %._crit_edge, label %13, !llvm.loop !98

20:                                               ; preds = %13, %20
  %indvars.iv = phi i64 [ 0, %13 ], [ %indvars.iv.next, %20 ]
  %21 = load double, ptr %14, align 8, !tbaa !32
  %22 = getelementptr inbounds nuw [3 x double], ptr %9, i64 0, i64 %indvars.iv
  %23 = load double, ptr %22, align 8, !tbaa !32
  %24 = load double, ptr %16, align 8, !tbaa !32
  %25 = getelementptr inbounds nuw [3 x double], ptr %10, i64 0, i64 %indvars.iv
  %26 = load double, ptr %25, align 8, !tbaa !32
  %27 = fmul double %24, %26
  %28 = tail call double @llvm.fmuladd.f64(double %21, double %23, double %27)
  %29 = load double, ptr %17, align 8, !tbaa !32
  %30 = getelementptr inbounds nuw [3 x double], ptr %11, i64 0, i64 %indvars.iv
  %31 = load double, ptr %30, align 8, !tbaa !32
  %32 = tail call double @llvm.fmuladd.f64(double %29, double %31, double %28)
  %33 = load double, ptr %18, align 8, !tbaa !32
  %34 = getelementptr inbounds nuw [3 x double], ptr %12, i64 0, i64 %indvars.iv
  %35 = load double, ptr %34, align 8, !tbaa !32
  %36 = tail call double @llvm.fmuladd.f64(double %33, double %35, double %32)
  %37 = getelementptr inbounds nuw double, ptr %15, i64 %indvars.iv
  store double %36, ptr %37, align 8, !tbaa !32
  %indvars.iv.next = add nuw nsw i64 %indvars.iv, 1
  %exitcond.not = icmp eq i64 %indvars.iv.next, 3
  br i1 %exitcond.not, label %19, label %20, !llvm.loop !99
}